; Function Attrs: mustprogress nounwind uwtable
define dso_local void @_ZN4llvm6MDNodedlEPv(ptr noundef %0) local_unnamed_addr #0 align 2 {
  %2 = getelementptr inbounds i8, ptr %0, i64 -16
  %3 = load i64, ptr %2, align 8
  %4 = shl i64 %3, 1
  %5 = and i64 %4, 120
  %.lhs.trunc.i = add nuw nsw i64 %5, 15
  %.zext.i = and i64 %.lhs.trunc.i, 248
  %6 = sub nuw nsw i64 -8, %.zext.i
  %7 = getelementptr inbounds i8, ptr %0, i64 %6
  tail call void @_ZN4llvm6MDNode6HeaderD1Ev(ptr noundef nonnull align 8 dereferenceable(12) %2) #23
  tail call void @_ZdlPv(ptr noundef nonnull %7) #23
  ret void
}